; Function Attrs: inlinehint nounwind uwtable
define hidden noalias ptr @mi_heap_malloc_small(ptr noundef %0, i64 noundef %1) local_unnamed_addr #0 {
  %3 = add i64 %1, 7
  %4 = lshr i64 %3, 3
  %5 = getelementptr inbounds nuw i8, ptr %0, i64 232
  %6 = getelementptr inbounds nuw [129 x ptr], ptr %5, i64 0, i64 %4
  %7 = load ptr, ptr %6, align 8, !tbaa !9
  %8 = getelementptr inbounds nuw i8, ptr %7, i64 8
  %9 = load ptr, ptr %8, align 8, !tbaa !11
  %10 = icmp eq ptr %9, null
  br i1 %10, label %11, label %13, !prof !17

11:                                               ; preds = %2
  %12 = tail call noalias ptr @_mi_malloc_generic(ptr noundef nonnull %0, i64 noundef %1, i1 noundef zeroext false, i64 noundef 0) #19
  br label %mi_heap_malloc_small_zero.exit

13:                                               ; preds = %2
  %.val.i.i = load i64, ptr %9, align 8, !tbaa !18
  %14 = inttoptr i64 %.val.i.i to ptr
  store ptr %14, ptr %8, align 8, !tbaa !11
  %15 = getelementptr inbounds nuw i8, ptr %7, i64 24
  %16 = load i16, ptr %15, align 8, !tbaa !20
  %17 = add i16 %16, 1
  store i16 %17, ptr %15, align 8, !tbaa !20
  br label %mi_heap_malloc_small_zero.exit

mi_heap_malloc_small_zero.exit:                   ; preds = %11, %13
  %.0.i.i = phi ptr [ %12, %11 ], [ %9, %13 ]
  ret ptr %.0.i.i
}